; Function Attrs: mustprogress nounwind uwtable
define dso_local void @_ZN4node4quic8Endpoint12AssociateCIDERKNS0_3CIDES4_(ptr noundef nonnull align 8 dereferenceable(1520) %this, ptr noundef nonnull align 8 dereferenceable(48) %cid, ptr noundef nonnull align 8 dereferenceable(48) %scid) local_unnamed_addr #3 align 2 {
entry:
  %impl_.i.i = getelementptr inbounds i8, ptr %this, i64 440
  %0 = load ptr, ptr %impl_.i.i, align 8
  %cmp.i.not.i.i.not = icmp eq ptr %0, null
  br i1 %cmp.i.not.i.i.not, label %land.lhs.true, label %if.end

land.lhs.true:                                    ; preds = %entry
  %ptr_.i.i = getelementptr inbounds i8, ptr %this, i64 128
  %1 = load ptr, ptr %ptr_.i.i, align 8
  %closing.i = getelementptr inbounds i8, ptr %1, i64 3
  %2 = load i8, ptr %closing.i, align 1
  %tobool.i.not = icmp eq i8 %2, 0
  br i1 %tobool.i.not, label %land.lhs.true3, label %if.end

land.lhs.true3:                                   ; preds = %land.lhs.true
  %call4 = tail call noundef zeroext i1 @_ZNK4node4quic3CIDcvbEv(ptr noundef nonnull align 8 dereferenceable(48) %cid) #21
  br i1 %call4, label %land.lhs.true5, label %if.end

land.lhs.true5:                                   ; preds = %land.lhs.true3
  %call6 = tail call noundef zeroext i1 @_ZNK4node4quic3CIDcvbEv(ptr noundef nonnull align 8 dereferenceable(48) %scid) #21
  br i1 %call6, label %land.lhs.true7, label %if.end

land.lhs.true7:                                   ; preds = %land.lhs.true5
  %call8 = tail call noundef zeroext i1 @_ZNK4node4quic3CIDneERKS1_(ptr noundef nonnull align 8 dereferenceable(48) %cid, ptr noundef nonnull align 8 dereferenceable(48) %scid) #21
  br i1 %call8, label %land.lhs.true9, label %if.end

land.lhs.true9:                                   ; preds = %land.lhs.true7
  %dcid_to_scid_ = getelementptr inbounds i8, ptr %this, i64 1296
  %call.i = tail call noundef nonnull align 8 dereferenceable(48) ptr @_ZNSt8__detail9_Map_baseIN4node4quic3CIDESt4pairIKS3_S3_ESaIS6_ENS_10_Select1stESt8equal_toIS3_ENS3_4HashENS_18_Mod_range_hashingENS_20_Default_ranged_hashENS_20_Prime_rehash_policyENS_17_Hashtable_traitsILb1ELb0ELb1EEELb1EEixERS5_(ptr noundef nonnull align 1 dereferenceable(1) %dcid_to_scid_, ptr noundef nonnull align 8 dereferenceable(48) %cid)
  %call11 = tail call noundef zeroext i1 @_ZNK4node4quic3CIDneERKS1_(ptr noundef nonnull align 8 dereferenceable(48) %call.i, ptr noundef nonnull align 8 dereferenceable(48) %scid) #21
  br i1 %call11, label %if.then, label %if.end

if.then:                                          ; preds = %land.lhs.true9
  %call.i.i = tail call { ptr, i8 } @_ZNSt10_HashtableIN4node4quic3CIDESt4pairIKS2_S2_ESaIS5_ENSt8__detail10_Select1stESt8equal_toIS2_ENS2_4HashENS7_18_Mod_range_hashingENS7_20_Default_ranged_hashENS7_20_Prime_rehash_policyENS7_17_Hashtable_traitsILb1ELb0ELb1EEEE10_M_emplaceIJRS4_SJ_EEES3_INS7_14_Node_iteratorIS5_Lb0ELb1EEEbESt17integral_constantIbLb1EEDpOT_(ptr noundef nonnull align 8 dereferenceable(64) %dcid_to_scid_, ptr noundef nonnull align 8 dereferenceable(48) %cid, ptr noundef nonnull align 8 dereferenceable(48) %scid)
  br label %if.end

if.end:                                           ; preds = %if.then, %land.lhs.true9, %land.lhs.true7, %land.lhs.true5, %land.lhs.true3, %land.lhs.true, %entry
  ret void
}